target datalayout = "e-m:e-p270:32:32-p271:32:32-p272:64:64-i64:64-i128:128-f80:128-n8:16:32:64-S128"
target triple = "x86_64-pc-linux-gnu"

%struct.rb_io = type { i64, ptr, i32, i32, i32, i32, i64, ptr, %struct.rb_io_internal_buffer, %struct.rb_io_internal_buffer, i64, %struct.rb_io_encoding, ptr, %struct.rb_io_internal_buffer, ptr, i64, i32, i32, i64, i64, i64 }
%struct.rb_io_encoding = type { ptr, ptr, i32, i64 }
%struct.rb_io_internal_buffer = type <{ ptr, i32, i32, i32 }>
%struct.RFile = type { %struct.RBasic, ptr }
%struct.RBasic = type { i64, i64 }

@stderr = external global ptr, align 8
@orig_stderr = internal global i64 0, align 8

; Function Attrs: nounwind sspstrong uwtable
define internal i32 @rb_stderr_to_original_p(i64 noundef %0) #0 {
  %2 = alloca i64, align 8
  store i64 %0, ptr %2, align 8, !tbaa !32
  %3 = load i64, ptr %2, align 8, !tbaa !32
  %4 = load i64, ptr @orig_stderr, align 8, !tbaa !32
  %5 = icmp eq i64 %3, %4
  br i1 %5, label %14, label %6

6:                                                ; preds = %1
  %7 = load i64, ptr @orig_stderr, align 8, !tbaa !32
  %8 = inttoptr i64 %7 to ptr
  %9 = getelementptr inbounds nuw %struct.RFile, ptr %8, i32 0, i32 1
  %10 = load ptr, ptr %9, align 8, !tbaa !34
  %11 = getelementptr inbounds nuw %struct.rb_io, ptr %10, i32 0, i32 2
  %12 = load i32, ptr %11, align 8, !tbaa !15
  %13 = icmp slt i32 %12, 0
  br label %14

14:                                               ; preds = %6, %1
  %15 = phi i1 [ true, %1 ], [ %13, %6 ]
  %16 = zext i1 %15 to i32
  ret i32 %16
}

; Function Attrs: nounwind sspstrong uwtable
define hidden i32 @rb_stderr_tty_p() #0 {
  %1 = alloca i32, align 4
  %2 = call i64 @rb_ractor_stderr()
  %3 = call i32 @rb_stderr_to_original_p(i64 noundef %2)
  %4 = icmp ne i32 %3, 0
  br i1 %4, label %5, label %9

5:                                                ; preds = %0
  %6 = load ptr, ptr @stderr, align 8, !tbaa !98
  %7 = call i32 @fileno(ptr noundef %6) #28
  %8 = call i32 @isatty(i32 noundef %7) #28
  store i32 %8, ptr %1, align 4
  br label %10

9:                                                ; preds = %0
  store i32 0, ptr %1, align 4
  br label %10

10:                                               ; preds = %9, %5
  %11 = load i32, ptr %1, align 4
  ret i32 %11
}