; Function Attrs: nounwind sspstrong uwtable
define hidden i32 @rb_stderr_tty_p() local_unnamed_addr #0 {
  %1 = tail call i64 @rb_ractor_stderr() #28
  %2 = load i64, ptr @orig_stderr, align 8, !tbaa !23
  %3 = icmp eq i64 %1, %2
  br i1 %3, label %rb_stderr_to_original_p.exit.thread, label %rb_stderr_to_original_p.exit

rb_stderr_to_original_p.exit:                     ; preds = %0
  %4 = inttoptr i64 %2 to ptr
  %5 = getelementptr inbounds nuw i8, ptr %4, i64 16
  %6 = load ptr, ptr %5, align 8, !tbaa !29
  %7 = getelementptr inbounds nuw i8, ptr %6, i64 16
  %8 = load i32, ptr %7, align 8, !tbaa !7
  %.not = icmp sgt i32 %8, -1
  br i1 %.not, label %12, label %rb_stderr_to_original_p.exit.thread

rb_stderr_to_original_p.exit.thread:              ; preds = %0, %rb_stderr_to_original_p.exit
  %9 = load ptr, ptr @stderr, align 8, !tbaa !152
  %10 = tail call i32 @fileno(ptr noundef %9) #28
  %11 = tail call i32 @isatty(i32 noundef %10) #28
  br label %12

12:                                               ; preds = %rb_stderr_to_original_p.exit, %rb_stderr_to_original_p.exit.thread
  %.0 = phi i32 [ %11, %rb_stderr_to_original_p.exit.thread ], [ 0, %rb_stderr_to_original_p.exit ]
  ret i32 %.0
}